target datalayout = "e-m:e-p270:32:32-p271:32:32-p272:64:64-i64:64-i128:128-f80:128-n8:16:32:64-S128"
target triple = "x86_64-pc-linux-gnu"

%struct.mbedtls_ctr_drbg_context = type { [16 x i8], i32, i32, i64, i32, %struct.mbedtls_aes_context, ptr, ptr }
%struct.mbedtls_aes_context = type { i32, i64, [68 x i32] }

@.str.2 = private unnamed_addr constant [26 x i8] c"  CTR_DRBG (PR = TRUE) : \00", align 1
@test_offset = internal global i64 0, align 8
@pers_pr = internal constant [32 x i8] c"Zp\95\E9\81@R3\91S~u\D6\19\9D\1E\AD\0D\C6\A7\DEl\1F\E0\EA\183\A8~\06 \E9", align 16
@.str.3 = private unnamed_addr constant [8 x i8] c"failed\0A\00", align 1
@result_pr = internal constant [64 x i8] c"\CE/\DB\B6\D9\B79\85\04\C5\C0B\C21\C6\1D\9BZY\F8~\0D\CCb{e\11U\10\EB\9E=\A4\FB\1Cj\18\C0t\DB\DD\E7\02#c!\D09\F9\A7\C4R\84;I@r+\B0l\9C\DB\C3C", align 16
@.str.4 = private unnamed_addr constant [8 x i8] c"passed\0A\00", align 1
@.str.5 = private unnamed_addr constant [26 x i8] c"  CTR_DRBG (PR = FALSE): \00", align 1
@entropy_source_nopr = internal constant [80 x i8] c"L\FB!\86s4m\9DP\C9\22\E4\9B\0D\FC\D0\90\AD\F0O\\;\A4s'\DF\CDo\A6:x\\\01ib\A7\FD'\87\A2K\F6\BEG\EF7\83\F1\B7\ECF\07#c\83J\1B\013\F2\C28\91\DBO\11\A6\86Q\F2>:\8B\1F\DC\03\B1\92\C7\E7", align 16
@pers_nopr = internal constant [32 x i8] c"\88\EE\B8\E0\E8;\F3)K\DA\CD`\99\EB\E4\BFU\EC\D9\11?q\E5\EB\CBEu\F3\D6\A6\8Ak", align 16
@result_nopr = internal constant [64 x i8] c"\A5Q\80\A1\90\BE\F3\AD\AF(\F6\B7\95\E9\F1\F3\D6\DF\A1\B2}\D0F{\0Cu\F5\FA\93\1E\97\14u\B2|\AE\03\A2\96T\E2\F4\09f\EA3d0@\D1@\0F\E6w\87:\F8\09|\1F\E9\F0\02\98", align 16
@.str.6 = private unnamed_addr constant [2 x i8] c"\0A\00", align 1

; Function Attrs: nounwind uwtable
define hidden i32 @mbedtls_ctr_drbg_reseed(ptr noundef %0, ptr noundef %1, i64 noundef %2) #0 {
  %4 = alloca ptr, align 8
  %5 = alloca ptr, align 8
  %6 = alloca i64, align 8
  store ptr %0, ptr %4, align 8, !tbaa !3
  store ptr %1, ptr %5, align 8, !tbaa !19
  store i64 %2, ptr %6, align 8, !tbaa !16
  %7 = load ptr, ptr %4, align 8, !tbaa !3
  %8 = load ptr, ptr %5, align 8, !tbaa !19
  %9 = load i64, ptr %6, align 8, !tbaa !16
  %10 = call i32 @mbedtls_ctr_drbg_reseed_internal(ptr noundef %7, ptr noundef %8, i64 noundef %9, i64 noundef 0)
  ret i32 %10
}

; Function Attrs: nounwind uwtable
define hidden i32 @mbedtls_ctr_drbg_random(ptr noundef %0, ptr noundef %1, i64 noundef %2) #0 {
  %4 = alloca ptr, align 8
  %5 = alloca ptr, align 8
  %6 = alloca i64, align 8
  %7 = alloca i32, align 4
  %8 = alloca ptr, align 8
  store ptr %0, ptr %4, align 8, !tbaa !29
  store ptr %1, ptr %5, align 8, !tbaa !19
  store i64 %2, ptr %6, align 8, !tbaa !16
  call void @llvm.lifetime.start.p0(i64 4, ptr %7) #10
  store i32 -110, ptr %7, align 4, !tbaa !14
  call void @llvm.lifetime.start.p0(i64 8, ptr %8) #10
  %9 = load ptr, ptr %4, align 8, !tbaa !29
  store ptr %9, ptr %8, align 8, !tbaa !3
  %10 = load ptr, ptr %8, align 8, !tbaa !3
  %11 = load ptr, ptr %5, align 8, !tbaa !19
  %12 = load i64, ptr %6, align 8, !tbaa !16
  %13 = call i32 @mbedtls_ctr_drbg_random_with_add(ptr noundef %10, ptr noundef %11, i64 noundef %12, ptr noundef null, i64 noundef 0)
  store i32 %13, ptr %7, align 4, !tbaa !14
  %14 = load i32, ptr %7, align 4, !tbaa !14
  call void @llvm.lifetime.end.p0(i64 8, ptr %8) #10
  call void @llvm.lifetime.end.p0(i64 4, ptr %7) #10
  ret i32 %14
}

; Function Attrs: nounwind uwtable
define hidden void @mbedtls_ctr_drbg_set_prediction_resistance(ptr noundef %0, i32 noundef %1) #0 {
  %3 = alloca ptr, align 8
  %4 = alloca i32, align 4
  store ptr %0, ptr %3, align 8, !tbaa !3
  store i32 %1, ptr %4, align 4, !tbaa !14
  %5 = load i32, ptr %4, align 4, !tbaa !14
  %6 = load ptr, ptr %3, align 8, !tbaa !3
  %7 = getelementptr inbounds nuw %struct.mbedtls_ctr_drbg_context, ptr %6, i32 0, i32 2
  store i32 %5, ptr %7, align 4, !tbaa !15
  ret void
}

; Function Attrs: nounwind uwtable
define hidden i32 @mbedtls_ctr_drbg_set_nonce_len(ptr noundef %0, i64 noundef %1) #0 {
  %3 = alloca i32, align 4
  %4 = alloca ptr, align 8
  %5 = alloca i64, align 8
  store ptr %0, ptr %4, align 8, !tbaa !3
  store i64 %1, ptr %5, align 8, !tbaa !16
  %6 = load ptr, ptr %4, align 8, !tbaa !3
  %7 = getelementptr inbounds nuw %struct.mbedtls_ctr_drbg_context, ptr %6, i32 0, i32 6
  %8 = load ptr, ptr %7, align 8, !tbaa !18
  %9 = icmp ne ptr %8, null
  br i1 %9, label %10, label %11

10:                                               ; preds = %2
  store i32 -52, ptr %3, align 4
  br label %24

11:                                               ; preds = %2
  %12 = load i64, ptr %5, align 8, !tbaa !16
  %13 = icmp ugt i64 %12, 384
  br i1 %13, label %14, label %15

14:                                               ; preds = %11
  store i32 -56, ptr %3, align 4
  br label %24

15:                                               ; preds = %11
  %16 = load i64, ptr %5, align 8, !tbaa !16
  %17 = icmp ugt i64 %16, 2147483647
  br i1 %17, label %18, label %19

18:                                               ; preds = %15
  store i32 -56, ptr %3, align 4
  br label %24

19:                                               ; preds = %15
  %20 = load i64, ptr %5, align 8, !tbaa !16
  %21 = trunc i64 %20 to i32
  %22 = load ptr, ptr %4, align 8, !tbaa !3
  %23 = getelementptr inbounds nuw %struct.mbedtls_ctr_drbg_context, ptr %22, i32 0, i32 1
  store i32 %21, ptr %23, align 8, !tbaa !8
  store i32 0, ptr %3, align 4
  br label %24

24:                                               ; preds = %19, %18, %14, %10
  %25 = load i32, ptr %3, align 4
  ret i32 %25
}

; Function Attrs: nounwind uwtable
define hidden void @mbedtls_ctr_drbg_set_entropy_len(ptr noundef %0, i64 noundef %1) #0 {
  %3 = alloca ptr, align 8
  %4 = alloca i64, align 8
  store ptr %0, ptr %3, align 8, !tbaa !3
  store i64 %1, ptr %4, align 8, !tbaa !16
  %5 = load i64, ptr %4, align 8, !tbaa !16
  %6 = load ptr, ptr %3, align 8, !tbaa !3
  %7 = getelementptr inbounds nuw %struct.mbedtls_ctr_drbg_context, ptr %6, i32 0, i32 3
  store i64 %5, ptr %7, align 8, !tbaa !17
  ret void
}

; Function Attrs: nounwind uwtable
define hidden void @mbedtls_ctr_drbg_init(ptr noundef %0) #0 {
  %2 = alloca ptr, align 8
  store ptr %0, ptr %2, align 8, !tbaa !3
  %3 = load ptr, ptr %2, align 8, !tbaa !3
  call void @llvm.memset.p0.i64(ptr align 8 %3, i8 0, i64 344, i1 false)
  %4 = load ptr, ptr %2, align 8, !tbaa !3
  %5 = getelementptr inbounds nuw %struct.mbedtls_ctr_drbg_context, ptr %4, i32 0, i32 5
  call void @mbedtls_aes_init(ptr noundef %5)
  %6 = load ptr, ptr %2, align 8, !tbaa !3
  %7 = getelementptr inbounds nuw %struct.mbedtls_ctr_drbg_context, ptr %6, i32 0, i32 1
  store i32 -1, ptr %7, align 8, !tbaa !8
  %8 = load ptr, ptr %2, align 8, !tbaa !3
  %9 = getelementptr inbounds nuw %struct.mbedtls_ctr_drbg_context, ptr %8, i32 0, i32 4
  store i32 10000, ptr %9, align 8, !tbaa !13
  ret void
}

; Function Attrs: nounwind uwtable
define hidden i32 @mbedtls_ctr_drbg_self_test(i32 noundef %0) #0 {
  %2 = alloca i32, align 4
  %3 = alloca i32, align 4
  %4 = alloca %struct.mbedtls_ctr_drbg_context, align 8
  %5 = alloca [64 x i8], align 16
  %6 = alloca i32, align 4
  store i32 %0, ptr %3, align 4, !tbaa !14
  call void @llvm.lifetime.start.p0(i64 344, ptr %4) #10
  call void @llvm.lifetime.start.p0(i64 64, ptr %5) #10
  call void @mbedtls_ctr_drbg_init(ptr noundef %4)
  %7 = load i32, ptr %3, align 4, !tbaa !14
  %8 = icmp ne i32 %7, 0
  br i1 %8, label %9, label %11

9:                                                ; preds = %1
  %10 = call i32 (ptr, ...) @printf(ptr noundef @.str.2)
  br label %11

11:                                               ; preds = %9, %1
  store i64 0, ptr @test_offset, align 8, !tbaa !16
  call void @mbedtls_ctr_drbg_set_entropy_len(ptr noundef %4, i64 noundef 32)
  %12 = call i32 @mbedtls_ctr_drbg_set_nonce_len(ptr noundef %4, i64 noundef 16)
  %13 = call i32 @mbedtls_ctr_drbg_seed(ptr noundef %4, ptr noundef @ctr_drbg_self_test_entropy, ptr noundef @entropy_source_pr, ptr noundef @pers_pr, i64 noundef 32)
  %14 = icmp ne i32 %13, 0
  br i1 %14, label %15, label %21

15:                                               ; preds = %11
  %16 = load i32, ptr %3, align 4, !tbaa !14
  %17 = icmp ne i32 %16, 0
  br i1 %17, label %18, label %20

18:                                               ; preds = %15
  %19 = call i32 (ptr, ...) @printf(ptr noundef @.str.3)
  br label %20

20:                                               ; preds = %18, %15
  store i32 1, ptr %2, align 4
  store i32 1, ptr %6, align 4
  br label %121

21:                                               ; preds = %11
  call void @mbedtls_ctr_drbg_set_prediction_resistance(ptr noundef %4, i32 noundef 1)
  %22 = getelementptr inbounds [64 x i8], ptr %5, i64 0, i64 0
  %23 = call i32 @mbedtls_ctr_drbg_random(ptr noundef %4, ptr noundef %22, i64 noundef 64)
  %24 = icmp ne i32 %23, 0
  br i1 %24, label %25, label %31

25:                                               ; preds = %21
  %26 = load i32, ptr %3, align 4, !tbaa !14
  %27 = icmp ne i32 %26, 0
  br i1 %27, label %28, label %30

28:                                               ; preds = %25
  %29 = call i32 (ptr, ...) @printf(ptr noundef @.str.3)
  br label %30

30:                                               ; preds = %28, %25
  store i32 1, ptr %2, align 4
  store i32 1, ptr %6, align 4
  br label %121

31:                                               ; preds = %21
  %32 = getelementptr inbounds [64 x i8], ptr %5, i64 0, i64 0
  %33 = call i32 @mbedtls_ctr_drbg_random(ptr noundef %4, ptr noundef %32, i64 noundef 64)
  %34 = icmp ne i32 %33, 0
  br i1 %34, label %35, label %41

35:                                               ; preds = %31
  %36 = load i32, ptr %3, align 4, !tbaa !14
  %37 = icmp ne i32 %36, 0
  br i1 %37, label %38, label %40

38:                                               ; preds = %35
  %39 = call i32 (ptr, ...) @printf(ptr noundef @.str.3)
  br label %40

40:                                               ; preds = %38, %35
  store i32 1, ptr %2, align 4
  store i32 1, ptr %6, align 4
  br label %121

41:                                               ; preds = %31
  %42 = getelementptr inbounds [64 x i8], ptr %5, i64 0, i64 0
  %43 = call i32 @memcmp(ptr noundef %42, ptr noundef @result_pr, i64 noundef 64) #11
  %44 = icmp ne i32 %43, 0
  br i1 %44, label %45, label %51

45:                                               ; preds = %41
  %46 = load i32, ptr %3, align 4, !tbaa !14
  %47 = icmp ne i32 %46, 0
  br i1 %47, label %48, label %50

48:                                               ; preds = %45
  %49 = call i32 (ptr, ...) @printf(ptr noundef @.str.3)
  br label %50

50:                                               ; preds = %48, %45
  store i32 1, ptr %2, align 4
  store i32 1, ptr %6, align 4
  br label %121

51:                                               ; preds = %41
  call void @mbedtls_ctr_drbg_free(ptr noundef %4)
  %52 = load i32, ptr %3, align 4, !tbaa !14
  %53 = icmp ne i32 %52, 0
  br i1 %53, label %54, label %56

54:                                               ; preds = %51
  %55 = call i32 (ptr, ...) @printf(ptr noundef @.str.4)
  br label %56

56:                                               ; preds = %54, %51
  %57 = load i32, ptr %3, align 4, !tbaa !14
  %58 = icmp ne i32 %57, 0
  br i1 %58, label %59, label %61

59:                                               ; preds = %56
  %60 = call i32 (ptr, ...) @printf(ptr noundef @.str.5)
  br label %61

61:                                               ; preds = %59, %56
  call void @mbedtls_ctr_drbg_init(ptr noundef %4)
  store i64 0, ptr @test_offset, align 8, !tbaa !16
  call void @mbedtls_ctr_drbg_set_entropy_len(ptr noundef %4, i64 noundef 32)
  %62 = call i32 @mbedtls_ctr_drbg_set_nonce_len(ptr noundef %4, i64 noundef 16)
  %63 = call i32 @mbedtls_ctr_drbg_seed(ptr noundef %4, ptr noundef @ctr_drbg_self_test_entropy, ptr noundef @entropy_source_nopr, ptr noundef @pers_nopr, i64 noundef 32)
  %64 = icmp ne i32 %63, 0
  br i1 %64, label %65, label %71

65:                                               ; preds = %61
  %66 = load i32, ptr %3, align 4, !tbaa !14
  %67 = icmp ne i32 %66, 0
  br i1 %67, label %68, label %70

68:                                               ; preds = %65
  %69 = call i32 (ptr, ...) @printf(ptr noundef @.str.3)
  br label %70

70:                                               ; preds = %68, %65
  store i32 1, ptr %2, align 4
  store i32 1, ptr %6, align 4
  br label %121

71:                                               ; preds = %61
  %72 = call i32 @mbedtls_ctr_drbg_reseed(ptr noundef %4, ptr noundef null, i64 noundef 0)
  %73 = icmp ne i32 %72, 0
  br i1 %73, label %74, label %80

74:                                               ; preds = %71
  %75 = load i32, ptr %3, align 4, !tbaa !14
  %76 = icmp ne i32 %75, 0
  br i1 %76, label %77, label %79

77:                                               ; preds = %74
  %78 = call i32 (ptr, ...) @printf(ptr noundef @.str.3)
  br label %79

79:                                               ; preds = %77, %74
  store i32 1, ptr %2, align 4
  store i32 1, ptr %6, align 4
  br label %121

80:                                               ; preds = %71
  %81 = getelementptr inbounds [64 x i8], ptr %5, i64 0, i64 0
  %82 = call i32 @mbedtls_ctr_drbg_random(ptr noundef %4, ptr noundef %81, i64 noundef 64)
  %83 = icmp ne i32 %82, 0
  br i1 %83, label %84, label %90

84:                                               ; preds = %80
  %85 = load i32, ptr %3, align 4, !tbaa !14
  %86 = icmp ne i32 %85, 0
  br i1 %86, label %87, label %89

87:                                               ; preds = %84
  %88 = call i32 (ptr, ...) @printf(ptr noundef @.str.3)
  br label %89

89:                                               ; preds = %87, %84
  store i32 1, ptr %2, align 4
  store i32 1, ptr %6, align 4
  br label %121

90:                                               ; preds = %80
  %91 = getelementptr inbounds [64 x i8], ptr %5, i64 0, i64 0
  %92 = call i32 @mbedtls_ctr_drbg_random(ptr noundef %4, ptr noundef %91, i64 noundef 64)
  %93 = icmp ne i32 %92, 0
  br i1 %93, label %94, label %100

94:                                               ; preds = %90
  %95 = load i32, ptr %3, align 4, !tbaa !14
  %96 = icmp ne i32 %95, 0
  br i1 %96, label %97, label %99

97:                                               ; preds = %94
  %98 = call i32 (ptr, ...) @printf(ptr noundef @.str.3)
  br label %99

99:                                               ; preds = %97, %94
  store i32 1, ptr %2, align 4
  store i32 1, ptr %6, align 4
  br label %121

100:                                              ; preds = %90
  %101 = getelementptr inbounds [64 x i8], ptr %5, i64 0, i64 0
  %102 = call i32 @memcmp(ptr noundef %101, ptr noundef @result_nopr, i64 noundef 64) #11
  %103 = icmp ne i32 %102, 0
  br i1 %103, label %104, label %110

104:                                              ; preds = %100
  %105 = load i32, ptr %3, align 4, !tbaa !14
  %106 = icmp ne i32 %105, 0
  br i1 %106, label %107, label %109

107:                                              ; preds = %104
  %108 = call i32 (ptr, ...) @printf(ptr noundef @.str.3)
  br label %109

109:                                              ; preds = %107, %104
  store i32 1, ptr %2, align 4
  store i32 1, ptr %6, align 4
  br label %121

110:                                              ; preds = %100
  call void @mbedtls_ctr_drbg_free(ptr noundef %4)
  %111 = load i32, ptr %3, align 4, !tbaa !14
  %112 = icmp ne i32 %111, 0
  br i1 %112, label %113, label %115

113:                                              ; preds = %110
  %114 = call i32 (ptr, ...) @printf(ptr noundef @.str.4)
  br label %115

115:                                              ; preds = %113, %110
  %116 = load i32, ptr %3, align 4, !tbaa !14
  %117 = icmp ne i32 %116, 0
  br i1 %117, label %118, label %120

118:                                              ; preds = %115
  %119 = call i32 (ptr, ...) @printf(ptr noundef @.str.6)
  br label %120

120:                                              ; preds = %118, %115
  store i32 0, ptr %2, align 4
  store i32 1, ptr %6, align 4
  br label %121

121:                                              ; preds = %120, %109, %99, %89, %79, %70, %50, %40, %30, %20
  call void @llvm.lifetime.end.p0(i64 64, ptr %5) #10
  call void @llvm.lifetime.end.p0(i64 344, ptr %4) #10
  %122 = load i32, ptr %2, align 4
  ret i32 %122
}