; Function Attrs: nounwind uwtable
define hidden range(i32 0, 2) i32 @mbedtls_ctr_drbg_self_test(i32 noundef %0) local_unnamed_addr #0 {
  %2 = alloca [32 x i8], align 16
  %3 = alloca %struct.mbedtls_ctr_drbg_context, align 8
  %4 = alloca [64 x i8], align 16
  call void @llvm.lifetime.start.p0(i64 344, ptr nonnull %3) #14
  call void @llvm.lifetime.start.p0(i64 64, ptr nonnull %4) #14
  call void @llvm.memset.p0.i64(ptr noundef nonnull align 8 dereferenceable(344) %3, i8 0, i64 344, i1 false)
  %5 = getelementptr inbounds nuw i8, ptr %3, i64 40
  call void @mbedtls_aes_init(ptr noundef nonnull %5) #14
  %6 = getelementptr inbounds nuw i8, ptr %3, i64 16
  store i32 -1, ptr %6, align 8, !tbaa !3
  %7 = getelementptr inbounds nuw i8, ptr %3, i64 32
  store i32 10000, ptr %7, align 8, !tbaa !11
  %.not = icmp eq i32 %0, 0
  br i1 %.not, label %10, label %8

8:                                                ; preds = %1
  %9 = call i32 (ptr, ...) @printf(ptr noundef nonnull dereferenceable(1) @.str.2)
  br label %10

10:                                               ; preds = %8, %1
  store i64 0, ptr @test_offset, align 8, !tbaa !25
  %11 = getelementptr inbounds nuw i8, ptr %3, i64 24
  store i64 32, ptr %11, align 8, !tbaa !13
  %12 = getelementptr inbounds nuw i8, ptr %3, i64 328
  %13 = load ptr, ptr %12, align 8, !tbaa !14
  %.not.i = icmp eq ptr %13, null
  br i1 %.not.i, label %14, label %._crit_edge

._crit_edge:                                      ; preds = %10
  %.pre = load i32, ptr %6, align 8, !tbaa !3
  br label %15

14:                                               ; preds = %10
  store i32 16, ptr %6, align 8, !tbaa !3
  br label %15

15:                                               ; preds = %._crit_edge, %14
  %16 = phi i32 [ %.pre, %._crit_edge ], [ 16, %14 ]
  call void @llvm.lifetime.start.p0(i64 32, ptr nonnull %2) #14
  call void @llvm.memset.p0.i64(ptr noundef nonnull align 16 dereferenceable(32) %2, i8 0, i64 32, i1 false)
  store ptr @ctr_drbg_self_test_entropy, ptr %12, align 8, !tbaa !14
  %17 = getelementptr inbounds nuw i8, ptr %3, i64 336
  store ptr @entropy_source_pr, ptr %17, align 8, !tbaa !23
  %18 = call i32 @mbedtls_aes_setkey_enc(ptr noundef nonnull %5, ptr noundef nonnull %2, i32 noundef 256) #14
  %.not.i37 = icmp eq i32 %18, 0
  br i1 %.not.i37, label %mbedtls_ctr_drbg_seed.exit, label %mbedtls_ctr_drbg_seed.exit.thread

mbedtls_ctr_drbg_seed.exit.thread:                ; preds = %15
  call void @llvm.lifetime.end.p0(i64 32, ptr nonnull %2) #14
  br label %22

mbedtls_ctr_drbg_seed.exit:                       ; preds = %15
  %19 = icmp slt i32 %16, 0
  %narrow = select i1 %19, i32 16, i32 %16
  %20 = zext i32 %narrow to i64
  %21 = call fastcc i32 @mbedtls_ctr_drbg_reseed_internal(ptr noundef nonnull %3, ptr noundef nonnull @pers_pr, i64 noundef 32, i64 noundef %20)
  call void @llvm.lifetime.end.p0(i64 32, ptr nonnull %2) #14
  %.not15 = icmp eq i32 %21, 0
  br i1 %.not15, label %24, label %22

22:                                               ; preds = %mbedtls_ctr_drbg_seed.exit.thread, %mbedtls_ctr_drbg_seed.exit
  br i1 %.not, label %.critedge36, label %23

23:                                               ; preds = %22
  %puts34 = call i32 @puts(ptr nonnull dereferenceable(1) @str.10)
  br label %.critedge36

24:                                               ; preds = %mbedtls_ctr_drbg_seed.exit
  %25 = getelementptr inbounds nuw i8, ptr %3, i64 20
  store i32 1, ptr %25, align 4, !tbaa !12
  %26 = call i32 @mbedtls_ctr_drbg_random_with_add(ptr noundef nonnull %3, ptr noundef nonnull %4, i64 noundef 64, ptr noundef null, i64 noundef 0)
  %.not16 = icmp eq i32 %26, 0
  br i1 %.not16, label %29, label %27

27:                                               ; preds = %24
  br i1 %.not, label %.critedge36, label %28

28:                                               ; preds = %27
  %puts33 = call i32 @puts(ptr nonnull dereferenceable(1) @str.10)
  br label %.critedge36

29:                                               ; preds = %24
  %30 = call i32 @mbedtls_ctr_drbg_random_with_add(ptr noundef nonnull %3, ptr noundef nonnull %4, i64 noundef 64, ptr noundef null, i64 noundef 0)
  %.not17 = icmp eq i32 %30, 0
  br i1 %.not17, label %33, label %31

31:                                               ; preds = %29
  br i1 %.not, label %.critedge36, label %32

32:                                               ; preds = %31
  %puts32 = call i32 @puts(ptr nonnull dereferenceable(1) @str.10)
  br label %.critedge36

33:                                               ; preds = %29
  %bcmp = call i32 @bcmp(ptr noundef nonnull dereferenceable(64) %4, ptr noundef nonnull dereferenceable(64) @result_pr, i64 64)
  %.not18 = icmp eq i32 %bcmp, 0
  br i1 %.not18, label %36, label %34

34:                                               ; preds = %33
  br i1 %.not, label %.critedge36, label %35

35:                                               ; preds = %34
  %puts31 = call i32 @puts(ptr nonnull dereferenceable(1) @str.10)
  br label %.critedge36

36:                                               ; preds = %33
  call void @mbedtls_ctr_drbg_free(ptr noundef nonnull %3)
  br i1 %.not, label %.critedge, label %37

37:                                               ; preds = %36
  %puts = call i32 @puts(ptr nonnull dereferenceable(1) @str.1)
  %38 = call i32 (ptr, ...) @printf(ptr noundef nonnull dereferenceable(1) @.str.5)
  br label %.critedge

.critedge:                                        ; preds = %36, %37
  call void @llvm.memset.p0.i64(ptr noundef nonnull align 8 dereferenceable(344) %3, i8 0, i64 344, i1 false)
  call void @mbedtls_aes_init(ptr noundef nonnull %5) #14
  store i32 -1, ptr %6, align 8, !tbaa !3
  store i32 10000, ptr %7, align 8, !tbaa !11
  store i64 0, ptr @test_offset, align 8, !tbaa !25
  store i64 32, ptr %11, align 8, !tbaa !13
  %39 = load ptr, ptr %12, align 8, !tbaa !14
  %.not.i39 = icmp eq ptr %39, null
  br i1 %.not.i39, label %40, label %mbedtls_ctr_drbg_set_nonce_len.exit41

40:                                               ; preds = %.critedge
  store i32 16, ptr %6, align 8, !tbaa !3
  br label %mbedtls_ctr_drbg_set_nonce_len.exit41

mbedtls_ctr_drbg_set_nonce_len.exit41:            ; preds = %.critedge, %40
  %41 = call i32 @mbedtls_ctr_drbg_seed(ptr noundef nonnull %3, ptr noundef nonnull @ctr_drbg_self_test_entropy, ptr noundef nonnull @entropy_source_nopr, ptr noundef nonnull @pers_nopr, i64 noundef 32)
  %.not19 = icmp eq i32 %41, 0
  br i1 %.not19, label %44, label %42

42:                                               ; preds = %mbedtls_ctr_drbg_set_nonce_len.exit41
  br i1 %.not, label %.critedge36, label %43

43:                                               ; preds = %42
  %puts30 = call i32 @puts(ptr nonnull dereferenceable(1) @str.10)
  br label %.critedge36

44:                                               ; preds = %mbedtls_ctr_drbg_set_nonce_len.exit41
  %45 = call fastcc i32 @mbedtls_ctr_drbg_reseed_internal(ptr noundef nonnull %3, ptr noundef null, i64 noundef 0, i64 noundef 0)
  %.not20 = icmp eq i32 %45, 0
  br i1 %.not20, label %48, label %46

46:                                               ; preds = %44
  br i1 %.not, label %.critedge36, label %47

47:                                               ; preds = %46
  %puts29 = call i32 @puts(ptr nonnull dereferenceable(1) @str.10)
  br label %.critedge36

48:                                               ; preds = %44
  %49 = call i32 @mbedtls_ctr_drbg_random_with_add(ptr noundef nonnull %3, ptr noundef nonnull %4, i64 noundef 64, ptr noundef null, i64 noundef 0)
  %.not21 = icmp eq i32 %49, 0
  br i1 %.not21, label %52, label %50

50:                                               ; preds = %48
  br i1 %.not, label %.critedge36, label %51

51:                                               ; preds = %50
  %puts28 = call i32 @puts(ptr nonnull dereferenceable(1) @str.10)
  br label %.critedge36

52:                                               ; preds = %48
  %53 = call i32 @mbedtls_ctr_drbg_random_with_add(ptr noundef nonnull %3, ptr noundef nonnull %4, i64 noundef 64, ptr noundef null, i64 noundef 0)
  %.not22 = icmp eq i32 %53, 0
  br i1 %.not22, label %56, label %54

54:                                               ; preds = %52
  br i1 %.not, label %.critedge36, label %55

55:                                               ; preds = %54
  %puts27 = call i32 @puts(ptr nonnull dereferenceable(1) @str.10)
  br label %.critedge36

56:                                               ; preds = %52
  %bcmp23 = call i32 @bcmp(ptr noundef nonnull dereferenceable(64) %4, ptr noundef nonnull dereferenceable(64) @result_nopr, i64 64)
  %.not24 = icmp eq i32 %bcmp23, 0
  br i1 %.not24, label %59, label %57

57:                                               ; preds = %56
  br i1 %.not, label %.critedge36, label %58

58:                                               ; preds = %57
  %puts26 = call i32 @puts(ptr nonnull dereferenceable(1) @str.10)
  br label %.critedge36

59:                                               ; preds = %56
  call void @mbedtls_ctr_drbg_free(ptr noundef nonnull %3)
  br i1 %.not, label %.critedge36, label %60

60:                                               ; preds = %59
  %puts25 = call i32 @puts(ptr nonnull dereferenceable(1) @str.1)
  %putchar = call i32 @putchar(i32 10)
  br label %.critedge36

.critedge36:                                      ; preds = %60, %59, %57, %58, %54, %55, %50, %51, %46, %47, %42, %43, %34, %35, %31, %32, %27, %28, %22, %23
  %.0 = phi i32 [ 1, %23 ], [ 1, %22 ], [ 1, %28 ], [ 1, %27 ], [ 1, %32 ], [ 1, %31 ], [ 1, %35 ], [ 1, %34 ], [ 1, %43 ], [ 1, %42 ], [ 1, %47 ], [ 1, %46 ], [ 1, %51 ], [ 1, %50 ], [ 1, %55 ], [ 1, %54 ], [ 1, %58 ], [ 1, %57 ], [ 0, %59 ], [ 0, %60 ]
  call void @llvm.lifetime.end.p0(i64 64, ptr nonnull %4) #14
  call void @llvm.lifetime.end.p0(i64 344, ptr nonnull %3) #14
  ret i32 %.0
}